; Function Attrs: mustprogress uwtable
define void @_ZN3zmq14session_base_t11timer_eventEi(ptr noundef nonnull align 8 captures(none) dereferenceable(1624) initializes((1576, 1577)) %0, i32 noundef %1) unnamed_addr #0 align 2 {
  %.not = icmp eq i32 %1, 32
  br i1 %.not, label %8, label %3, !prof !102

3:                                                ; preds = %2
  %4 = load ptr, ptr @stderr, align 8, !tbaa !52
  %5 = tail call i32 (ptr, ptr, ...) @fprintf(ptr noundef %4, ptr noundef nonnull @.str.3, ptr noundef nonnull @.str.21, ptr noundef nonnull @.str.1, i32 noundef 526) #27
  %6 = load ptr, ptr @stderr, align 8, !tbaa !52
  %7 = tail call i32 @fflush(ptr noundef %6)
  tail call void @_ZN3zmq9zmq_abortEPKc(ptr noundef nonnull @.str.21)
  br label %8

8:                                                ; preds = %2, %3
  %9 = getelementptr inbounds nuw i8, ptr %0, i64 1576
  store i8 0, ptr %9, align 8, !tbaa !94
  %10 = getelementptr inbounds nuw i8, ptr %0, i64 1480
  %11 = load ptr, ptr %10, align 8, !tbaa !101
  %.not1 = icmp eq ptr %11, null
  br i1 %.not1, label %12, label %17, !prof !104

12:                                               ; preds = %8
  %13 = load ptr, ptr @stderr, align 8, !tbaa !52
  %14 = tail call i32 (ptr, ptr, ...) @fprintf(ptr noundef %13, ptr noundef nonnull @.str.3, ptr noundef nonnull @.str.22, ptr noundef nonnull @.str.1, i32 noundef 530) #27
  %15 = load ptr, ptr @stderr, align 8, !tbaa !52
  %16 = tail call i32 @fflush(ptr noundef %15)
  tail call void @_ZN3zmq9zmq_abortEPKc(ptr noundef nonnull @.str.22)
  %.pre = load ptr, ptr %10, align 8, !tbaa !101
  br label %17

17:                                               ; preds = %8, %12
  %18 = phi ptr [ %11, %8 ], [ %.pre, %12 ]
  tail call void @_ZN3zmq6pipe_t9terminateEb(ptr noundef nonnull align 8 dereferenceable(328) %18, i1 noundef zeroext false)
  ret void
}